target datalayout = "e-m:e-p270:32:32-p271:32:32-p272:64:64-i64:64-i128:128-f80:128-n8:16:32:64-S128"
target triple = "x86_64-unknown-linux-gnu"

%"class.std::ios_base::Init" = type { i8 }
%struct.EnumString = type { i32, ptr }

@_ZStL8__ioinit = internal global %"class.std::ios_base::Init" zeroinitializer, align 1
@__dso_handle = external hidden global i8
@.str = private unnamed_addr constant [5 x i8] c"none\00", align 1
@.str.1 = private unnamed_addr constant [5 x i8] c"node\00", align 1
@.str.2 = private unnamed_addr constant [6 x i8] c"craft\00", align 1
@.str.3 = private unnamed_addr constant [5 x i8] c"tool\00", align 1
@es_ItemType = dso_local local_unnamed_addr global [5 x %struct.EnumString] [%struct.EnumString { i32 0, ptr @.str }, %struct.EnumString { i32 1, ptr @.str.1 }, %struct.EnumString { i32 2, ptr @.str.2 }, %struct.EnumString { i32 3, ptr @.str.3 }, %struct.EnumString zeroinitializer], align 16
@.str.4 = private unnamed_addr constant [21 x i8] c"long_dig_short_place\00", align 1
@.str.5 = private unnamed_addr constant [21 x i8] c"short_dig_long_place\00", align 1
@es_TouchInteractionMode = dso_local local_unnamed_addr global [3 x %struct.EnumString] [%struct.EnumString { i32 0, ptr @.str.4 }, %struct.EnumString { i32 1, ptr @.str.5 }, %struct.EnumString zeroinitializer], align 16
@llvm.global_ctors = appending global [1 x { i32, ptr, ptr }] [{ i32, ptr, ptr } { i32 65535, ptr @_GLOBAL__sub_I_c_types.cpp, ptr null }]

declare void @_ZNSt8ios_base4InitC1Ev(ptr noundef nonnull align 1 dereferenceable(1)) unnamed_addr #0

; Function Attrs: nounwind
declare void @_ZNSt8ios_base4InitD1Ev(ptr noundef nonnull align 1 dereferenceable(1)) unnamed_addr #1

; Function Attrs: nofree nounwind
declare i32 @__cxa_atexit(ptr, ptr, ptr) local_unnamed_addr #2

; Function Attrs: uwtable
define internal void @_GLOBAL__sub_I_c_types.cpp() #3 section ".text.startup" {
entry:
  tail call void @_ZNSt8ios_base4InitC1Ev(ptr noundef nonnull align 1 dereferenceable(1) @_ZStL8__ioinit)
  %0 = tail call i32 @__cxa_atexit(ptr nonnull @_ZNSt8ios_base4InitD1Ev, ptr nonnull @_ZStL8__ioinit, ptr nonnull @__dso_handle) #4
  ret void
}


!llvm.module.flags = !{!0, !1, !2, !3}

!0 = !{i32 1, !"wchar_size", i32 4}
!1 = !{i32 8, !"PIC Level", i32 2}
!2 = !{i32 7, !"PIE Level", i32 2}
!3 = !{i32 7, !"uwtable", i32 2}
